target datalayout = "e-m:e-p270:32:32-p271:32:32-p272:64:64-i64:64-i128:128-f80:128-n8:16:32:64-S128"
target triple = "x86_64-pc-linux-gnu"

%struct.t_trxstatus = type { i32, i32, float, float, ptr, ptr, ptr, i32, ptr }
%"class.std::filesystem::__cxx11::path" = type { %"class.std::__cxx11::basic_string", %"struct.std::filesystem::__cxx11::path::_List" }
%"class.std::__cxx11::basic_string" = type { %"struct.std::__cxx11::basic_string<char>::_Alloc_hider", i64, %union.anon }
%"struct.std::__cxx11::basic_string<char>::_Alloc_hider" = type { ptr }
%union.anon = type { i64, [8 x i8] }
%"struct.std::filesystem::__cxx11::path::_List" = type { %"class.std::unique_ptr" }
%"class.std::unique_ptr" = type { %"struct.std::__uniq_ptr_data" }
%"struct.std::__uniq_ptr_data" = type { %"class.std::__uniq_ptr_impl" }
%"class.std::__uniq_ptr_impl" = type { %"class.std::tuple" }
%"class.std::tuple" = type { %"struct.std::_Tuple_impl" }
%"struct.std::_Tuple_impl" = type { %"struct.std::_Head_base.1" }
%"struct.std::_Head_base.1" = type { ptr }
%"class.std::allocator" = type { i8 }

@.str.2 = private unnamed_addr constant [122 x i8] c"generated/home/dtcxzyw/WorkSpace/Projects/compilers/llvm-opt-benchmark/bench/gromacs/gromacs/src/gromacs/fileio/trxio.cpp\00", align 1
@.str.4 = private unnamed_addr constant [52 x i8] c"Error reading last frame. Maybe seek not supported.\00", align 1
@.str.5 = private unnamed_addr constant [24 x i8] c"Error opening TNG file.\00", align 1
@.str.6 = private unnamed_addr constant [7 x i8] c"incons\00", align 1
@.str.7 = private unnamed_addr constant [31 x i8] c"Only supported for TNG and XTC\00", align 1

; Function Attrs: mustprogress nounwind uwtable
define noundef ptr @_Z14trx_get_fileioP11t_trxstatus(ptr noundef %0) #0 {
  %2 = alloca ptr, align 8
  store ptr %0, ptr %2, align 8
  %3 = load ptr, ptr %2, align 8
  %4 = getelementptr inbounds %struct.t_trxstatus, ptr %3, i32 0, i32 5
  %5 = load ptr, ptr %4, align 8
  ret ptr %5
}

; Function Attrs: mustprogress uwtable
define noundef float @_Z27trx_get_time_of_final_frameP11t_trxstatus(ptr noundef %0) #2 personality ptr @__gxx_personality_v0 {
  %2 = alloca ptr, align 8
  %3 = alloca ptr, align 8
  %4 = alloca i32, align 4
  %5 = alloca i8, align 1
  %6 = alloca float, align 4
  %7 = alloca %"class.std::filesystem::__cxx11::path", align 8
  %8 = alloca ptr, align 8
  %9 = alloca i32, align 4
  %10 = alloca ptr, align 8
  %11 = alloca %"class.std::filesystem::__cxx11::path", align 8
  %12 = alloca %"class.std::__cxx11::basic_string", align 8
  %13 = alloca %"class.std::allocator", align 1
  %14 = alloca %"class.std::filesystem::__cxx11::path", align 8
  store ptr %0, ptr %2, align 8
  %15 = load ptr, ptr %2, align 8
  %16 = call noundef ptr @_Z14trx_get_fileioP11t_trxstatus(ptr noundef %15)
  store ptr %16, ptr %3, align 8
  %17 = load ptr, ptr %3, align 8
  %18 = call noundef i32 @_Z14gmx_fio_getftpP8t_fileio(ptr noundef %17)
  store i32 %18, ptr %4, align 4
  store float -1.000000e+00, ptr %6, align 4
  %19 = load i32, ptr %4, align 4
  %20 = icmp eq i32 %19, 6
  br i1 %20, label %21, label %39

21:                                               ; preds = %1
  %22 = load ptr, ptr %3, align 8
  %23 = call noundef ptr @_Z13gmx_fio_getfpP8t_fileio(ptr noundef %22)
  %24 = load ptr, ptr %3, align 8
  %25 = call noundef ptr @_Z14gmx_fio_getxdrP8t_fileio(ptr noundef %24)
  %26 = load ptr, ptr %2, align 8
  %27 = getelementptr inbounds %struct.t_trxstatus, ptr %26, i32 0, i32 7
  %28 = load i32, ptr %27, align 8
  %29 = call noundef float @_Z27xdr_xtc_get_last_frame_timeP8_IO_FILEP3XDRiPb(ptr noundef %23, ptr noundef %25, i32 noundef %28, ptr noundef %5)
  store float %29, ptr %6, align 4
  %30 = load i8, ptr %5, align 1
  %31 = trunc i8 %30 to i1
  br i1 %31, label %38, label %32

32:                                               ; preds = %21
  call void @_ZNSt10filesystem7__cxx114pathC2IA122_cS1_EERKT_NS1_6formatE(ptr noundef nonnull align 8 dereferenceable(40) %7, ptr noundef nonnull align 1 dereferenceable(122) @.str.2, i8 noundef zeroext 2)
  invoke void (i32, ptr, i32, ptr, ...) @_Z9gmx_fataliRKNSt10filesystem7__cxx114pathEiPKcz(i32 noundef 0, ptr noundef nonnull align 8 dereferenceable(40) %7, i32 noundef 258, ptr noundef @.str.4) #13
          to label %33 unwind label %34

33:                                               ; preds = %32
  unreachable

34:                                               ; preds = %32
  %35 = landingpad { ptr, i32 }
          cleanup
  %36 = extractvalue { ptr, i32 } %35, 0
  store ptr %36, ptr %8, align 8
  %37 = extractvalue { ptr, i32 } %35, 1
  store i32 %37, ptr %9, align 4
  call void @_ZNSt10filesystem7__cxx114pathD2Ev(ptr noundef nonnull align 8 dereferenceable(40) %7) #12
  br label %78

38:                                               ; preds = %21
  br label %76

39:                                               ; preds = %1
  %40 = load i32, ptr %4, align 4
  %41 = icmp eq i32 %40, 7
  br i1 %41, label %42, label %57

42:                                               ; preds = %39
  %43 = load ptr, ptr %2, align 8
  %44 = getelementptr inbounds %struct.t_trxstatus, ptr %43, i32 0, i32 6
  %45 = load ptr, ptr %44, align 8
  store ptr %45, ptr %10, align 8
  %46 = load ptr, ptr %10, align 8
  %47 = icmp ne ptr %46, null
  br i1 %47, label %54, label %48

48:                                               ; preds = %42
  call void @_ZNSt10filesystem7__cxx114pathC2IA122_cS1_EERKT_NS1_6formatE(ptr noundef nonnull align 8 dereferenceable(40) %11, ptr noundef nonnull align 1 dereferenceable(122) @.str.2, i8 noundef zeroext 2)
  invoke void (i32, ptr, i32, ptr, ...) @_Z9gmx_fataliRKNSt10filesystem7__cxx114pathEiPKcz(i32 noundef 0, ptr noundef nonnull align 8 dereferenceable(40) %11, i32 noundef 266, ptr noundef @.str.5) #13
          to label %49 unwind label %50

49:                                               ; preds = %48
  unreachable

50:                                               ; preds = %48
  %51 = landingpad { ptr, i32 }
          cleanup
  %52 = extractvalue { ptr, i32 } %51, 0
  store ptr %52, ptr %8, align 8
  %53 = extractvalue { ptr, i32 } %51, 1
  store i32 %53, ptr %9, align 4
  call void @_ZNSt10filesystem7__cxx114pathD2Ev(ptr noundef nonnull align 8 dereferenceable(40) %11) #12
  br label %78

54:                                               ; preds = %42
  %55 = load ptr, ptr %10, align 8
  %56 = call noundef float @_Z31gmx_tng_get_time_of_final_frameP18gmx_tng_trajectory(ptr noundef %55)
  store float %56, ptr %6, align 4
  br label %75

57:                                               ; preds = %39
  call void @_ZNSaIcEC1Ev(ptr noundef nonnull align 1 dereferenceable(1) %13) #12
  invoke void @_ZNSt7__cxx1112basic_stringIcSt11char_traitsIcESaIcEEC2IS3_EEPKcRKS3_(ptr noundef nonnull align 8 dereferenceable(32) %12, ptr noundef @.str.7, ptr noundef nonnull align 1 dereferenceable(1) %13)
          to label %58 unwind label %61

58:                                               ; preds = %57
  invoke void @_ZNSt10filesystem7__cxx114pathC2IA122_cS1_EERKT_NS1_6formatE(ptr noundef nonnull align 8 dereferenceable(40) %14, ptr noundef nonnull align 1 dereferenceable(122) @.str.2, i8 noundef zeroext 2)
          to label %59 unwind label %65

59:                                               ; preds = %58
  invoke void @_Z18gmx_error_functionPKcRKNSt7__cxx1112basic_stringIcSt11char_traitsIcESaIcEEERKNSt10filesystem7__cxx114pathEi(ptr noundef @.str.6, ptr noundef nonnull align 8 dereferenceable(32) %12, ptr noundef nonnull align 8 dereferenceable(40) %14, i32 noundef 272) #13
          to label %60 unwind label %69

60:                                               ; preds = %59
  unreachable

61:                                               ; preds = %57
  %62 = landingpad { ptr, i32 }
          cleanup
  %63 = extractvalue { ptr, i32 } %62, 0
  store ptr %63, ptr %8, align 8
  %64 = extractvalue { ptr, i32 } %62, 1
  store i32 %64, ptr %9, align 4
  br label %74

65:                                               ; preds = %58
  %66 = landingpad { ptr, i32 }
          cleanup
  %67 = extractvalue { ptr, i32 } %66, 0
  store ptr %67, ptr %8, align 8
  %68 = extractvalue { ptr, i32 } %66, 1
  store i32 %68, ptr %9, align 4
  br label %73

69:                                               ; preds = %59
  %70 = landingpad { ptr, i32 }
          cleanup
  %71 = extractvalue { ptr, i32 } %70, 0
  store ptr %71, ptr %8, align 8
  %72 = extractvalue { ptr, i32 } %70, 1
  store i32 %72, ptr %9, align 4
  call void @_ZNSt10filesystem7__cxx114pathD2Ev(ptr noundef nonnull align 8 dereferenceable(40) %14) #12
  br label %73

73:                                               ; preds = %69, %65
  call void @_ZNSt7__cxx1112basic_stringIcSt11char_traitsIcESaIcEED1Ev(ptr noundef nonnull align 8 dereferenceable(32) %12) #12
  br label %74

74:                                               ; preds = %73, %61
  call void @_ZNSaIcED1Ev(ptr noundef nonnull align 1 dereferenceable(1) %13) #12
  br label %78

75:                                               ; preds = %54
  br label %76

76:                                               ; preds = %75, %38
  %77 = load float, ptr %6, align 4
  ret float %77

78:                                               ; preds = %74, %50, %34
  %79 = load ptr, ptr %8, align 8
  %80 = load i32, ptr %9, align 4
  %81 = insertvalue { ptr, i32 } poison, ptr %79, 0
  %82 = insertvalue { ptr, i32 } %81, i32 %80, 1
  resume { ptr, i32 } %82
}