; Function Attrs: mustprogress uwtable
define noundef float @_Z27trx_get_time_of_final_frameP11t_trxstatus(ptr nocapture noundef readonly %0) local_unnamed_addr #2 personality ptr @__gxx_personality_v0 {
  %2 = alloca i8, align 1
  %3 = alloca %"class.std::filesystem::__cxx11::path", align 8
  %4 = alloca %"class.std::filesystem::__cxx11::path", align 8
  %5 = alloca %"class.std::__cxx11::basic_string", align 8
  %6 = alloca %"class.std::allocator", align 1
  %7 = alloca %"class.std::filesystem::__cxx11::path", align 8
  %8 = getelementptr inbounds i8, ptr %0, i64 24
  %9 = load ptr, ptr %8, align 8
  %10 = tail call noundef i32 @_Z14gmx_fio_getftpP8t_fileio(ptr noundef %9)
  switch i32 %10, label %32 [
    i32 6, label %11
    i32 7, label %23
  ]

11:                                               ; preds = %1
  %12 = tail call noundef ptr @_Z13gmx_fio_getfpP8t_fileio(ptr noundef %9)
  %13 = tail call noundef ptr @_Z14gmx_fio_getxdrP8t_fileio(ptr noundef %9)
  %14 = getelementptr inbounds i8, ptr %0, i64 40
  %15 = load i32, ptr %14, align 8
  %16 = call noundef float @_Z27xdr_xtc_get_last_frame_timeP8_IO_FILEP3XDRiPb(ptr noundef %12, ptr noundef %13, i32 noundef %15, ptr noundef nonnull %2)
  %17 = load i8, ptr %2, align 1
  %18 = trunc i8 %17 to i1
  br i1 %18, label %44, label %19

19:                                               ; preds = %11
  call void @_ZNSt10filesystem7__cxx114pathC2IA122_cS1_EERKT_NS1_6formatE(ptr noundef nonnull align 8 dereferenceable(40) %3, ptr noundef nonnull align 1 dereferenceable(122) @.str.2, i8 noundef zeroext 2)
  invoke void (i32, ptr, i32, ptr, ...) @_Z9gmx_fataliRKNSt10filesystem7__cxx114pathEiPKcz(i32 noundef 0, ptr noundef nonnull align 8 dereferenceable(40) %3, i32 noundef 258, ptr noundef nonnull @.str.4) #19
          to label %20 unwind label %21

20:                                               ; preds = %19
  unreachable

21:                                               ; preds = %19
  %22 = landingpad { ptr, i32 }
          cleanup
  call void @_ZNSt10filesystem7__cxx114pathD2Ev(ptr noundef nonnull align 8 dereferenceable(40) %3) #18
  br label %45

23:                                               ; preds = %1
  %24 = getelementptr inbounds i8, ptr %0, i64 32
  %25 = load ptr, ptr %24, align 8
  %.not = icmp eq ptr %25, null
  br i1 %.not, label %26, label %30

26:                                               ; preds = %23
  call void @_ZNSt10filesystem7__cxx114pathC2IA122_cS1_EERKT_NS1_6formatE(ptr noundef nonnull align 8 dereferenceable(40) %4, ptr noundef nonnull align 1 dereferenceable(122) @.str.2, i8 noundef zeroext 2)
  invoke void (i32, ptr, i32, ptr, ...) @_Z9gmx_fataliRKNSt10filesystem7__cxx114pathEiPKcz(i32 noundef 0, ptr noundef nonnull align 8 dereferenceable(40) %4, i32 noundef 266, ptr noundef nonnull @.str.5) #19
          to label %27 unwind label %28

27:                                               ; preds = %26
  unreachable

28:                                               ; preds = %26
  %29 = landingpad { ptr, i32 }
          cleanup
  call void @_ZNSt10filesystem7__cxx114pathD2Ev(ptr noundef nonnull align 8 dereferenceable(40) %4) #18
  br label %45

30:                                               ; preds = %23
  %31 = tail call noundef float @_Z31gmx_tng_get_time_of_final_frameP18gmx_tng_trajectory(ptr noundef nonnull %25)
  br label %44

32:                                               ; preds = %1
  call void @_ZNSaIcEC1Ev(ptr noundef nonnull align 1 dereferenceable(1) %6) #18
  invoke void @_ZNSt7__cxx1112basic_stringIcSt11char_traitsIcESaIcEEC2IS3_EEPKcRKS3_(ptr noundef nonnull align 8 dereferenceable(32) %5, ptr noundef nonnull @.str.7, ptr noundef nonnull align 1 dereferenceable(1) %6)
          to label %33 unwind label %36

33:                                               ; preds = %32
  invoke void @_ZNSt10filesystem7__cxx114pathC2IA122_cS1_EERKT_NS1_6formatE(ptr noundef nonnull align 8 dereferenceable(40) %7, ptr noundef nonnull align 1 dereferenceable(122) @.str.2, i8 noundef zeroext 2)
          to label %34 unwind label %38

34:                                               ; preds = %33
  invoke void @_Z18gmx_error_functionPKcRKNSt7__cxx1112basic_stringIcSt11char_traitsIcESaIcEEERKNSt10filesystem7__cxx114pathEi(ptr noundef nonnull @.str.6, ptr noundef nonnull align 8 dereferenceable(32) %5, ptr noundef nonnull align 8 dereferenceable(40) %7, i32 noundef 272) #19
          to label %35 unwind label %40

35:                                               ; preds = %34
  unreachable

36:                                               ; preds = %32
  %37 = landingpad { ptr, i32 }
          cleanup
  br label %43

38:                                               ; preds = %33
  %39 = landingpad { ptr, i32 }
          cleanup
  br label %42

40:                                               ; preds = %34
  %41 = landingpad { ptr, i32 }
          cleanup
  call void @_ZNSt10filesystem7__cxx114pathD2Ev(ptr noundef nonnull align 8 dereferenceable(40) %7) #18
  br label %42

42:                                               ; preds = %40, %38
  %.pn = phi { ptr, i32 } [ %41, %40 ], [ %39, %38 ]
  call void @_ZNSt7__cxx1112basic_stringIcSt11char_traitsIcESaIcEED1Ev(ptr noundef nonnull align 8 dereferenceable(32) %5) #18
  br label %43

43:                                               ; preds = %42, %36
  %.pn.pn = phi { ptr, i32 } [ %.pn, %42 ], [ %37, %36 ]
  call void @_ZNSaIcED1Ev(ptr noundef nonnull align 1 dereferenceable(1) %6) #18
  br label %45

44:                                               ; preds = %11, %30
  %.0 = phi float [ %16, %11 ], [ %31, %30 ]
  ret float %.0

45:                                               ; preds = %43, %28, %21
  %.pn20 = phi { ptr, i32 } [ %22, %21 ], [ %29, %28 ], [ %.pn.pn, %43 ]
  resume { ptr, i32 } %.pn20
}